; Function Attrs: nounwind uwtable
define ptr @l___private_Lean_Data_FuzzyMatching_0__Lean_FuzzyMatching_fuzzyMatchCore_getDoubleIdx(ptr noundef readonly captures(none) %0, ptr noundef %1, ptr noundef %2) local_unnamed_addr #0 {
  %4 = getelementptr i8, ptr %0, i64 24
  %.val = load i64, ptr %4, align 8, !tbaa !13
  %5 = ptrtoint ptr %1 to i64
  %6 = and i64 %5, 1
  %.not = icmp eq i64 %6, 0
  br i1 %.not, label %.critedge.i20, label %7, !prof !4

7:                                                ; preds = %3
  %8 = lshr i64 %5, 1
  %9 = icmp ult ptr %1, inttoptr (i64 2 to ptr)
  br i1 %9, label %lean_dec.exit29, label %10

10:                                               ; preds = %7
  %11 = and i64 %.val, 9223372036854775807
  %mul.i22 = tail call { i64, i1 } @llvm.umul.with.overflow.i64(i64 %8, i64 %11)
  %mul.val.i23 = extractvalue { i64, i1 } %mul.i22, 0
  %12 = icmp sgt i64 %mul.val.i23, -1
  br i1 %12, label %13, label %18

13:                                               ; preds = %10
  %mul.ov.i24 = extractvalue { i64, i1 } %mul.i22, 1
  br i1 %mul.ov.i24, label %18, label %14

14:                                               ; preds = %13
  %15 = shl nuw i64 %mul.val.i23, 1
  %16 = or disjoint i64 %15, 1
  %17 = inttoptr i64 %16 to ptr
  br label %lean_dec.exit29

18:                                               ; preds = %13, %10
  %19 = tail call ptr @lean_nat_overflow_mul(i64 noundef %8, i64 noundef %11) #7
  br label %lean_dec.exit29

.critedge.i20:                                    ; preds = %3
  %20 = shl i64 %.val, 1
  %21 = or disjoint i64 %20, 1
  %22 = inttoptr i64 %21 to ptr
  %23 = tail call ptr @lean_nat_big_mul(ptr noundef %1, ptr noundef nonnull %22) #7
  br label %lean_dec.exit29

lean_dec.exit29:                                  ; preds = %.critedge.i20, %18, %14, %7
  %.2.i21 = phi ptr [ %23, %.critedge.i20 ], [ %1, %7 ], [ %17, %14 ], [ %19, %18 ]
  %24 = ptrtoint ptr %.2.i21 to i64
  %25 = and i64 %24, 1
  %.not41 = icmp eq i64 %25, 0
  br i1 %.not41, label %37, label %26, !prof !4

26:                                               ; preds = %lean_dec.exit29
  %27 = lshr i64 %24, 1
  %28 = icmp ult ptr %.2.i21, inttoptr (i64 2 to ptr)
  br i1 %28, label %lean_dec.exit28, label %29

29:                                               ; preds = %26
  %30 = icmp sgt ptr %.2.i21, inttoptr (i64 -1 to ptr)
  br i1 %30, label %31, label %35

31:                                               ; preds = %29
  %mul.i1640 = shl i64 %24, 1
  %32 = and i64 %mul.i1640, -4
  %33 = or disjoint i64 %32, 1
  %34 = inttoptr i64 %33 to ptr
  br label %lean_dec.exit28

35:                                               ; preds = %29
  %36 = tail call ptr @lean_nat_overflow_mul(i64 noundef %27, i64 noundef 2) #7
  br label %lean_dec.exit28

37:                                               ; preds = %lean_dec.exit29
  %38 = tail call ptr @lean_nat_big_mul(ptr noundef %.2.i21, ptr noundef nonnull inttoptr (i64 5 to ptr)) #7
  %39 = load i32, ptr %.2.i21, align 4, !tbaa !5
  %40 = icmp sgt i32 %39, 1
  br i1 %40, label %41, label %43, !prof !10

41:                                               ; preds = %37
  %42 = add nsw i32 %39, -1
  store i32 %42, ptr %.2.i21, align 4, !tbaa !5
  br label %lean_dec.exit28

43:                                               ; preds = %37
  %.not.i30 = icmp eq i32 %39, 0
  br i1 %.not.i30, label %lean_dec.exit28, label %44

44:                                               ; preds = %43
  tail call void @lean_dec_ref_cold(ptr noundef nonnull %.2.i21) #7
  br label %lean_dec.exit28

lean_dec.exit28:                                  ; preds = %35, %31, %26, %44, %43, %41
  %.2.i1538 = phi ptr [ %38, %41 ], [ %38, %43 ], [ %38, %44 ], [ %36, %35 ], [ %34, %31 ], [ %.2.i21, %26 ]
  %45 = ptrtoint ptr %2 to i64
  %46 = and i64 %45, 1
  %.not42 = icmp eq i64 %46, 0
  br i1 %.not42, label %.critedge.i, label %47, !prof !4

47:                                               ; preds = %lean_dec.exit28
  %48 = lshr i64 %45, 1
  %49 = icmp ult ptr %2, inttoptr (i64 2 to ptr)
  br i1 %49, label %lean_nat_mul.exit, label %50

50:                                               ; preds = %47
  %51 = icmp sgt ptr %2, inttoptr (i64 -1 to ptr)
  br i1 %51, label %52, label %56

52:                                               ; preds = %50
  %mul.i39 = shl i64 %45, 1
  %53 = and i64 %mul.i39, -4
  %54 = or disjoint i64 %53, 1
  %55 = inttoptr i64 %54 to ptr
  br label %lean_nat_mul.exit

56:                                               ; preds = %50
  %57 = tail call ptr @lean_nat_overflow_mul(i64 noundef %48, i64 noundef 2) #7
  br label %lean_nat_mul.exit

.critedge.i:                                      ; preds = %lean_dec.exit28
  %58 = tail call ptr @lean_nat_big_mul(ptr noundef %2, ptr noundef nonnull inttoptr (i64 5 to ptr)) #7
  br label %lean_nat_mul.exit

lean_nat_mul.exit:                                ; preds = %47, %52, %56, %.critedge.i
  %.2.i = phi ptr [ %58, %.critedge.i ], [ %2, %47 ], [ %55, %52 ], [ %57, %56 ]
  %59 = ptrtoint ptr %.2.i1538 to i64
  %60 = and i64 %59, 1
  %.not43 = icmp eq i64 %60, 0
  %.pre48 = ptrtoint ptr %.2.i to i64
  %.pre = and i64 %.pre48, 1
  %61 = icmp eq i64 %.pre, 0
  br i1 %.not43, label %lean_nat_add.exit, label %62, !prof !4

62:                                               ; preds = %lean_nat_mul.exit
  br i1 %61, label %lean_nat_add.exit.thread52, label %64, !prof !4

lean_nat_add.exit.thread52:                       ; preds = %62
  %63 = tail call ptr @lean_nat_big_add(ptr noundef %.2.i1538, ptr noundef %.2.i) #7
  br label %76

64:                                               ; preds = %62
  %65 = lshr i64 %59, 1
  %66 = lshr i64 %.pre48, 1
  %67 = add nuw i64 %66, %65
  %68 = icmp sgt i64 %67, -1
  br i1 %68, label %69, label %73, !prof !10

69:                                               ; preds = %64
  %70 = shl nuw i64 %67, 1
  %71 = or disjoint i64 %70, 1
  %72 = inttoptr i64 %71 to ptr
  br label %lean_dec.exit

73:                                               ; preds = %64
  %74 = tail call ptr @lean_big_usize_to_nat(i64 noundef range(i64 0, -1) %67) #7
  br label %lean_dec.exit

lean_nat_add.exit:                                ; preds = %lean_nat_mul.exit
  %75 = tail call ptr @lean_nat_big_add(ptr noundef %.2.i1538, ptr noundef %.2.i) #7
  br i1 %61, label %76, label %lean_dec.exit27.thread

76:                                               ; preds = %lean_nat_add.exit.thread52, %lean_nat_add.exit
  %77 = phi ptr [ %63, %lean_nat_add.exit.thread52 ], [ %75, %lean_nat_add.exit ]
  %78 = load i32, ptr %.2.i, align 4, !tbaa !5
  %79 = icmp sgt i32 %78, 1
  br i1 %79, label %80, label %82, !prof !10

80:                                               ; preds = %76
  %81 = add nsw i32 %78, -1
  store i32 %81, ptr %.2.i, align 4, !tbaa !5
  br label %lean_dec.exit27

82:                                               ; preds = %76
  %.not.i32 = icmp eq i32 %78, 0
  br i1 %.not.i32, label %lean_dec.exit27, label %83

83:                                               ; preds = %82
  tail call void @lean_dec_ref_cold(ptr noundef nonnull %.2.i) #7
  br label %lean_dec.exit27

lean_dec.exit27:                                  ; preds = %83, %82, %80
  br i1 %.not43, label %lean_dec.exit27.thread, label %lean_dec.exit

lean_dec.exit27.thread:                           ; preds = %lean_nat_add.exit, %lean_dec.exit27
  %.0.i5156 = phi ptr [ %77, %lean_dec.exit27 ], [ %75, %lean_nat_add.exit ]
  %84 = load i32, ptr %.2.i1538, align 4, !tbaa !5
  %85 = icmp sgt i32 %84, 1
  br i1 %85, label %86, label %88, !prof !10

86:                                               ; preds = %lean_dec.exit27.thread
  %87 = add nsw i32 %84, -1
  store i32 %87, ptr %.2.i1538, align 4, !tbaa !5
  br label %lean_dec.exit

88:                                               ; preds = %lean_dec.exit27.thread
  %.not.i34 = icmp eq i32 %84, 0
  br i1 %.not.i34, label %lean_dec.exit, label %89

89:                                               ; preds = %88
  tail call void @lean_dec_ref_cold(ptr noundef nonnull %.2.i1538) #7
  br label %lean_dec.exit

lean_dec.exit:                                    ; preds = %73, %69, %89, %88, %86, %lean_dec.exit27
  %.0.i5155 = phi ptr [ %.0.i5156, %89 ], [ %.0.i5156, %88 ], [ %.0.i5156, %86 ], [ %77, %lean_dec.exit27 ], [ %72, %69 ], [ %74, %73 ]
  ret ptr %.0.i5155
}